; Function Attrs: nofree norecurse nosync nounwind memory(argmem: readwrite) uwtable
define void @ff_sobel_8(i32 noundef %0, i32 noundef %1, ptr noundef writeonly captures(none) %2, i32 noundef %3, ptr noundef writeonly captures(none) %4, i32 noundef %5, ptr noundef readonly captures(none) %6, i32 noundef %7, i32 noundef %8) local_unnamed_addr #0 {
  %10 = sext i32 %7 to i64
  %11 = sext i32 %3 to i64
  %12 = icmp sgt i32 %1, 2
  br i1 %12, label %.lr.ph94, label %._crit_edge95

.lr.ph94:                                         ; preds = %9
  %13 = sext i32 %5 to i64
  %14 = icmp sgt i32 %0, 2
  br i1 %14, label %.lr.ph.us.preheader, label %._crit_edge95

.lr.ph.us.preheader:                              ; preds = %.lr.ph94
  %15 = add nsw i32 %0, -1
  %16 = sext i32 %8 to i64
  %wide.trip.count = zext i32 %15 to i64
  %17 = add nsw i32 %1, -2
  br label %.lr.ph.us

.lr.ph.us:                                        ; preds = %.lr.ph.us.preheader, %._crit_edge.us
  %.092.us = phi ptr [ %18, %._crit_edge.us ], [ %2, %.lr.ph.us.preheader ]
  %.07491.us = phi i32 [ %78, %._crit_edge.us ], [ 1, %.lr.ph.us.preheader ]
  %.07590.us = phi ptr [ %20, %._crit_edge.us ], [ %6, %.lr.ph.us.preheader ]
  %.07689.us = phi ptr [ %19, %._crit_edge.us ], [ %4, %.lr.ph.us.preheader ]
  %18 = getelementptr inbounds i16, ptr %.092.us, i64 %11
  %19 = getelementptr inbounds i8, ptr %.07689.us, i64 %13
  %20 = getelementptr inbounds i8, ptr %.07590.us, i64 %10
  %invariant.gep = getelementptr i8, ptr %20, i64 %10
  %invariant.gep99 = getelementptr i8, ptr %20, i64 %10
  %invariant.gep101 = getelementptr i8, ptr %20, i64 %10
  br label %21

21:                                               ; preds = %.lr.ph.us, %get_rounded_direction.exit.us
  %indvars.iv = phi i64 [ 1, %.lr.ph.us ], [ %indvars.iv.next, %get_rounded_direction.exit.us ]
  %22 = add nsw i64 %indvars.iv, -1
  %23 = mul nsw i64 %22, %16
  %24 = getelementptr inbounds i8, ptr %.07590.us, i64 %23
  %25 = load i8, ptr %24, align 1, !tbaa !4
  %26 = zext i8 %25 to i32
  %indvars.iv.next = add nuw nsw i64 %indvars.iv, 1
  %27 = mul nsw i64 %indvars.iv.next, %16
  %28 = getelementptr inbounds i8, ptr %.07590.us, i64 %27
  %29 = load i8, ptr %28, align 1, !tbaa !4
  %30 = zext i8 %29 to i32
  %31 = getelementptr inbounds i8, ptr %20, i64 %23
  %32 = load i8, ptr %31, align 1, !tbaa !4
  %33 = zext i8 %32 to i32
  %34 = getelementptr inbounds i8, ptr %20, i64 %27
  %35 = load i8, ptr %34, align 1, !tbaa !4
  %36 = zext i8 %35 to i32
  %gep = getelementptr i8, ptr %invariant.gep, i64 %23
  %37 = load i8, ptr %gep, align 1, !tbaa !4
  %38 = zext i8 %37 to i32
  %gep100 = getelementptr i8, ptr %invariant.gep99, i64 %27
  %39 = load i8, ptr %gep100, align 1, !tbaa !4
  %40 = zext i8 %39 to i32
  %reass.add.us = sub nsw i32 %36, %33
  %reass.mul.us = shl nsw i32 %reass.add.us, 1
  %41 = add nuw nsw i32 %26, %38
  %42 = sub nsw i32 %30, %41
  %43 = add nsw i32 %42, %40
  %44 = add nsw i32 %43, %reass.mul.us
  %45 = mul nsw i64 %indvars.iv, %16
  %46 = getelementptr inbounds i8, ptr %.07590.us, i64 %45
  %47 = load i8, ptr %46, align 1, !tbaa !4
  %48 = zext i8 %47 to i32
  %gep102 = getelementptr i8, ptr %invariant.gep101, i64 %45
  %49 = load i8, ptr %gep102, align 1, !tbaa !4
  %50 = zext i8 %49 to i32
  %reass.add86.us = sub nsw i32 %50, %48
  %reass.mul87.us = shl nsw i32 %reass.add86.us, 1
  %51 = add nuw nsw i32 %30, %26
  %52 = sub nsw i32 %38, %51
  %53 = add nsw i32 %52, %40
  %54 = add nsw i32 %53, %reass.mul87.us
  %55 = tail call i32 @llvm.abs.i32(i32 %44, i1 true)
  %56 = tail call i32 @llvm.abs.i32(i32 %54, i1 true)
  %57 = add nuw nsw i32 %56, %55
  %58 = trunc nuw nsw i32 %57 to i16
  %59 = getelementptr inbounds nuw i16, ptr %18, i64 %indvars.iv
  store i16 %58, ptr %59, align 2, !tbaa !7
  %.not.i.us = icmp eq i32 %44, 0
  br i1 %.not.i.us, label %76, label %60

60:                                               ; preds = %21
  %61 = icmp slt i32 %44, 0
  %62 = sub nsw i32 0, %54
  %.023.i.us = select i1 %61, i32 %62, i32 %54
  %63 = shl nsw i32 %.023.i.us, 16
  %64 = mul nuw nsw i32 %55, 27146
  %65 = mul nuw nsw i32 %55, 158218
  %66 = sub nsw i32 0, %65
  %67 = icmp sgt i32 %63, %66
  %68 = sub nsw i32 0, %64
  %69 = icmp slt i32 %63, %68
  %or.cond.i.us = select i1 %67, i1 %69, i1 false
  br i1 %or.cond.i.us, label %get_rounded_direction.exit.us, label %70

70:                                               ; preds = %60
  %71 = icmp sgt i32 %63, %68
  %72 = icmp slt i32 %63, %64
  %or.cond28.i.us = and i1 %71, %72
  br i1 %or.cond28.i.us, label %get_rounded_direction.exit.us, label %73

73:                                               ; preds = %70
  %74 = icmp sle i32 %63, %64
  %75 = icmp sge i32 %63, %65
  %or.cond29.not.i.us = or i1 %74, %75
  br i1 %or.cond29.not.i.us, label %76, label %get_rounded_direction.exit.us

76:                                               ; preds = %73, %21
  br label %get_rounded_direction.exit.us

get_rounded_direction.exit.us:                    ; preds = %76, %73, %70, %60
  %.1.i.us = phi i8 [ 1, %73 ], [ 3, %76 ], [ 2, %70 ], [ 0, %60 ]
  %77 = getelementptr inbounds nuw i8, ptr %19, i64 %indvars.iv
  store i8 %.1.i.us, ptr %77, align 1, !tbaa !4
  %exitcond.not = icmp eq i64 %indvars.iv.next, %wide.trip.count
  br i1 %exitcond.not, label %._crit_edge.us, label %21, !llvm.loop !9

._crit_edge.us:                                   ; preds = %get_rounded_direction.exit.us
  %78 = add nuw nsw i32 %.07491.us, 1
  %exitcond98.not = icmp eq i32 %.07491.us, %17
  br i1 %exitcond98.not, label %._crit_edge95, label %.lr.ph.us, !llvm.loop !11

._crit_edge95:                                    ; preds = %._crit_edge.us, %.lr.ph94, %9
  ret void
}